target datalayout = "e-m:e-p270:32:32-p271:32:32-p272:64:64-i64:64-i128:128-f80:128-n8:16:32:64-S128"
target triple = "x86_64-pc-linux-gnu"

%"class.std::chrono::duration.1" = type { i64 }

@_ZN4absl13time_internal4cctz6detail12_GLOBAL__N_17kDigitsE = internal constant [11 x i8] c"0123456789\00", align 1

; Function Attrs: mustprogress nounwind uwtable
define linkonce_odr dso_local void @_ZNSt6chrono8durationIlSt5ratioILl1ELl1000000000000000EEEC2IlvEERKT_(ptr noundef nonnull align 8 dereferenceable(8) %0, ptr noundef nonnull align 8 dereferenceable(8) %1) unnamed_addr #1 comdat align 2 {
  %3 = alloca ptr, align 8
  %4 = alloca ptr, align 8
  store ptr %0, ptr %3, align 8, !tbaa !11
  store ptr %1, ptr %4, align 8, !tbaa !87
  %5 = load ptr, ptr %3, align 8
  %6 = getelementptr inbounds nuw %"class.std::chrono::duration.1", ptr %5, i32 0, i32 0
  %7 = load ptr, ptr %4, align 8, !tbaa !87
  %8 = load i64, ptr %7, align 8, !tbaa !21
  store i64 %8, ptr %6, align 8, !tbaa !73
  ret void
}

; Function Attrs: mustprogress uwtable
define internal noundef ptr @_ZN4absl13time_internal4cctz6detail12_GLOBAL__N_115ParseSubSecondsEPKcPNSt6chrono8durationIlSt5ratioILl1ELl1000000000000000EEEE(ptr noundef %0, ptr noundef %1) #0 {
  %3 = alloca ptr, align 8
  %4 = alloca ptr, align 8
  %5 = alloca i64, align 8
  %6 = alloca i64, align 8
  %7 = alloca ptr, align 8
  %8 = alloca ptr, align 8
  %9 = alloca i32, align 4
  %10 = alloca i32, align 4
  %11 = alloca %"class.std::chrono::duration.1", align 8
  store ptr %0, ptr %3, align 8, !tbaa !15
  store ptr %1, ptr %4, align 8, !tbaa !11
  %12 = load ptr, ptr %3, align 8, !tbaa !15
  %13 = icmp ne ptr %12, null
  br i1 %13, label %14, label %67

14:                                               ; preds = %2
  call void @llvm.lifetime.start.p0(i64 8, ptr %5) #16
  store i64 0, ptr %5, align 8, !tbaa !21
  call void @llvm.lifetime.start.p0(i64 8, ptr %6) #16
  store i64 0, ptr %6, align 8, !tbaa !21
  call void @llvm.lifetime.start.p0(i64 8, ptr %7) #16
  %15 = load ptr, ptr %3, align 8, !tbaa !15
  store ptr %15, ptr %7, align 8, !tbaa !15
  br label %16

16:                                               ; preds = %52, %14
  call void @llvm.lifetime.start.p0(i64 8, ptr %8) #16
  %17 = load ptr, ptr %3, align 8, !tbaa !15
  %18 = load i8, ptr %17, align 1, !tbaa !17
  %19 = sext i8 %18 to i32
  %20 = call noundef ptr @strchr(ptr noundef @_ZN4absl13time_internal4cctz6detail12_GLOBAL__N_17kDigitsE, i32 noundef %19) #17
  store ptr %20, ptr %8, align 8, !tbaa !15
  %21 = load ptr, ptr %8, align 8, !tbaa !15
  %22 = icmp ne ptr %21, null
  br i1 %22, label %24, label %23

23:                                               ; preds = %16
  store i32 3, ptr %9, align 4
  br label %50

24:                                               ; preds = %16
  call void @llvm.lifetime.start.p0(i64 4, ptr %10) #16
  %25 = load ptr, ptr %8, align 8, !tbaa !15
  %26 = ptrtoint ptr %25 to i64
  %27 = sub i64 %26, ptrtoint (ptr @_ZN4absl13time_internal4cctz6detail12_GLOBAL__N_17kDigitsE to i64)
  %28 = trunc i64 %27 to i32
  store i32 %28, ptr %10, align 4, !tbaa !34
  %29 = load i32, ptr %10, align 4, !tbaa !34
  %30 = icmp sge i32 %29, 10
  br i1 %30, label %31, label %32

31:                                               ; preds = %24
  store i32 3, ptr %9, align 4
  br label %47

32:                                               ; preds = %24
  %33 = load i64, ptr %6, align 8, !tbaa !21
  %34 = icmp slt i64 %33, 15
  br i1 %34, label %35, label %44

35:                                               ; preds = %32
  %36 = load i64, ptr %6, align 8, !tbaa !21
  %37 = add nsw i64 %36, 1
  store i64 %37, ptr %6, align 8, !tbaa !21
  %38 = load i64, ptr %5, align 8, !tbaa !21
  %39 = mul nsw i64 %38, 10
  store i64 %39, ptr %5, align 8, !tbaa !21
  %40 = load i32, ptr %10, align 4, !tbaa !34
  %41 = sext i32 %40 to i64
  %42 = load i64, ptr %5, align 8, !tbaa !21
  %43 = add nsw i64 %42, %41
  store i64 %43, ptr %5, align 8, !tbaa !21
  br label %44

44:                                               ; preds = %35, %32
  %45 = load ptr, ptr %3, align 8, !tbaa !15
  %46 = getelementptr inbounds nuw i8, ptr %45, i32 1
  store ptr %46, ptr %3, align 8, !tbaa !15
  store i32 0, ptr %9, align 4
  br label %47

47:                                               ; preds = %44, %31
  call void @llvm.lifetime.end.p0(i64 4, ptr %10) #16
  %48 = load i32, ptr %9, align 4
  switch i32 %48, label %50 [
    i32 0, label %49
  ]

49:                                               ; preds = %47
  store i32 0, ptr %9, align 4
  br label %50

50:                                               ; preds = %49, %47, %23
  call void @llvm.lifetime.end.p0(i64 8, ptr %8) #16
  %51 = load i32, ptr %9, align 4
  switch i32 %51, label %69 [
    i32 0, label %52
    i32 3, label %53
  ]

52:                                               ; preds = %50
  br label %16, !llvm.loop !91

53:                                               ; preds = %50
  %54 = load ptr, ptr %3, align 8, !tbaa !15
  %55 = load ptr, ptr %7, align 8, !tbaa !15
  %56 = icmp ne ptr %54, %55
  br i1 %56, label %57, label %65

57:                                               ; preds = %53
  %58 = load i64, ptr %6, align 8, !tbaa !21
  %59 = sub nsw i64 15, %58
  %60 = getelementptr inbounds [19 x i64], ptr @_ZN4absl13time_internal4cctz6detail12_GLOBAL__N_16kExp10E, i64 0, i64 %59
  %61 = load i64, ptr %60, align 8, !tbaa !21
  %62 = load i64, ptr %5, align 8, !tbaa !21
  %63 = mul nsw i64 %62, %61
  store i64 %63, ptr %5, align 8, !tbaa !21
  call void @llvm.lifetime.start.p0(i64 8, ptr %11) #16
  call void @_ZNSt6chrono8durationIlSt5ratioILl1ELl1000000000000000EEEC2IlvEERKT_(ptr noundef nonnull align 8 dereferenceable(8) %11, ptr noundef nonnull align 8 dereferenceable(8) %5)
  %64 = load ptr, ptr %4, align 8, !tbaa !11
  call void @llvm.memcpy.p0.p0.i64(ptr align 8 %64, ptr align 8 %11, i64 8, i1 false), !tbaa.struct !83
  call void @llvm.lifetime.end.p0(i64 8, ptr %11) #16
  br label %66

65:                                               ; preds = %53
  store ptr null, ptr %3, align 8, !tbaa !15
  br label %66

66:                                               ; preds = %65, %57
  call void @llvm.lifetime.end.p0(i64 8, ptr %7) #16
  call void @llvm.lifetime.end.p0(i64 8, ptr %6) #16
  call void @llvm.lifetime.end.p0(i64 8, ptr %5) #16
  br label %67

67:                                               ; preds = %66, %2
  %68 = load ptr, ptr %3, align 8, !tbaa !15
  ret ptr %68

69:                                               ; preds = %50
  unreachable
}