; Function Attrs: mustprogress nofree nounwind memory(argmem: readwrite) uwtable
define internal fastcc noundef ptr @_ZN4absl13time_internal4cctz6detail12_GLOBAL__N_115ParseSubSecondsEPKcPNSt6chrono8durationIlSt5ratioILl1ELl1000000000000000EEEE(ptr noundef nonnull readonly captures(address, ret: address, provenance) %0, ptr noundef nonnull writeonly captures(none) %1) unnamed_addr #4 {
  %3 = load i8, ptr %0, align 1, !tbaa !13
  %4 = sext i8 %3 to i32
  %memchr39 = tail call ptr @memchr(ptr noundef nonnull dereferenceable(1) @_ZN4absl13time_internal4cctz6detail12_GLOBAL__N_17kDigitsE, i32 %4, i64 11)
  %.not40 = icmp eq ptr %memchr39, null
  br i1 %.not40, label %._crit_edge.thread, label %.lr.ph

.lr.ph:                                           ; preds = %2, %16
  %memchr44 = phi ptr [ %memchr, %16 ], [ %memchr39, %2 ]
  %.143 = phi ptr [ %17, %16 ], [ %0, %2 ]
  %.01842 = phi i64 [ %.321, %16 ], [ 0, %2 ]
  %.041 = phi i64 [ %.230, %16 ], [ 0, %2 ]
  %5 = ptrtoint ptr %memchr44 to i64
  %6 = trunc i64 %5 to i32
  %7 = sub i32 %6, ptrtoint (ptr @_ZN4absl13time_internal4cctz6detail12_GLOBAL__N_17kDigitsE to i32)
  %8 = icmp sgt i32 %7, 9
  br i1 %8, label %._crit_edge, label %9

9:                                                ; preds = %.lr.ph
  %10 = icmp slt i64 %.01842, 15
  br i1 %10, label %11, label %16

11:                                               ; preds = %9
  %12 = add nsw i64 %.01842, 1
  %13 = mul nsw i64 %.041, 10
  %14 = sext i32 %7 to i64
  %15 = add nsw i64 %13, %14
  br label %16

16:                                               ; preds = %9, %11
  %.230 = phi i64 [ %15, %11 ], [ %.041, %9 ]
  %.321 = phi i64 [ %12, %11 ], [ %.01842, %9 ]
  %17 = getelementptr inbounds nuw i8, ptr %.143, i64 1
  %18 = load i8, ptr %17, align 1, !tbaa !13
  %19 = sext i8 %18 to i32
  %memchr = tail call ptr @memchr(ptr noundef nonnull dereferenceable(1) @_ZN4absl13time_internal4cctz6detail12_GLOBAL__N_17kDigitsE, i32 %19, i64 11)
  %.not = icmp eq ptr %memchr, null
  br i1 %.not, label %._crit_edge.thread55, label %.lr.ph

._crit_edge:                                      ; preds = %.lr.ph
  %.not26 = icmp eq ptr %.143, %0
  br i1 %.not26, label %._crit_edge.thread, label %._crit_edge.thread55

._crit_edge.thread55:                             ; preds = %16, %._crit_edge
  %.321.pn = phi i64 [ %.01842, %._crit_edge ], [ %.321, %16 ]
  %.1.lcssa.ph61 = phi ptr [ %.143, %._crit_edge ], [ %17, %16 ]
  %.0.lcssa.ph60 = phi i64 [ %.041, %._crit_edge ], [ %.230, %16 ]
  %20 = sub nsw i64 15, %.321.pn
  %21 = getelementptr inbounds [19 x i64], ptr @_ZN4absl13time_internal4cctz6detail12_GLOBAL__N_16kExp10E, i64 0, i64 %20
  %22 = load i64, ptr %21, align 8, !tbaa !49
  %23 = mul nsw i64 %22, %.0.lcssa.ph60
  store i64 %23, ptr %1, align 8, !tbaa !49
  br label %._crit_edge.thread

._crit_edge.thread:                               ; preds = %2, %._crit_edge, %._crit_edge.thread55
  %.4 = phi ptr [ %.1.lcssa.ph61, %._crit_edge.thread55 ], [ null, %._crit_edge ], [ null, %2 ]
  ret ptr %.4
}